target datalayout = "e-m:e-p270:32:32-p271:32:32-p272:64:64-i64:64-i128:128-f80:128-n8:16:32:64-S128"
target triple = "x86_64-pc-linux-gnu"

%struct.AVFilterContext = type { ptr, ptr, ptr, ptr, ptr, i32, ptr, ptr, i32, ptr, ptr, i32, i32, ptr, ptr, ptr, ptr, i32, ptr, i32, i32 }
%struct.AudioFWTDNContext = type { ptr, double, double, double, i64, i64, i32, i32, i32, i32, i32, i32, i32, i32, i32, i32, i32, i32, i32, i32, ptr, ptr, ptr, ptr, ptr, ptr, ptr, ptr, ptr, ptr, ptr }

@.str.23 = private unnamed_addr constant [8 x i8] c"profile\00", align 1

; Function Attrs: nounwind uwtable
define internal i32 @process_command(ptr noundef %0, ptr noundef %1, ptr noundef %2, ptr noundef %3, i32 noundef %4, i32 noundef %5) #1 {
  %7 = alloca i32, align 4
  %8 = alloca ptr, align 8
  %9 = alloca ptr, align 8
  %10 = alloca ptr, align 8
  %11 = alloca ptr, align 8
  %12 = alloca i32, align 4
  %13 = alloca i32, align 4
  %14 = alloca ptr, align 8
  %15 = alloca i32, align 4
  %16 = alloca i32, align 4
  store ptr %0, ptr %8, align 8, !tbaa !4
  store ptr %1, ptr %9, align 8, !tbaa !43
  store ptr %2, ptr %10, align 8, !tbaa !43
  store ptr %3, ptr %11, align 8, !tbaa !43
  store i32 %4, ptr %12, align 4, !tbaa !24
  store i32 %5, ptr %13, align 4, !tbaa !24
  call void @llvm.lifetime.start.p0(i64 8, ptr %14) #12
  %17 = load ptr, ptr %8, align 8, !tbaa !4
  %18 = getelementptr inbounds nuw %struct.AVFilterContext, ptr %17, i32 0, i32 9
  %19 = load ptr, ptr %18, align 8, !tbaa !9
  store ptr %19, ptr %14, align 8, !tbaa !22
  call void @llvm.lifetime.start.p0(i64 4, ptr %15) #12
  %20 = load ptr, ptr %8, align 8, !tbaa !4
  %21 = load ptr, ptr %9, align 8, !tbaa !43
  %22 = load ptr, ptr %10, align 8, !tbaa !43
  %23 = load ptr, ptr %11, align 8, !tbaa !43
  %24 = load i32, ptr %12, align 4, !tbaa !24
  %25 = load i32, ptr %13, align 4, !tbaa !24
  %26 = call i32 @ff_filter_process_command(ptr noundef %20, ptr noundef %21, ptr noundef %22, ptr noundef %23, i32 noundef %24, i32 noundef %25)
  store i32 %26, ptr %15, align 4, !tbaa !24
  %27 = load i32, ptr %15, align 4, !tbaa !24
  %28 = icmp slt i32 %27, 0
  br i1 %28, label %29, label %31

29:                                               ; preds = %6
  %30 = load i32, ptr %15, align 4, !tbaa !24
  store i32 %30, ptr %7, align 4
  store i32 1, ptr %16, align 4
  br label %44

31:                                               ; preds = %6
  %32 = load ptr, ptr %9, align 8, !tbaa !43
  %33 = call i32 @strcmp(ptr noundef %32, ptr noundef @.str.23) #13
  %34 = icmp ne i32 %33, 0
  br i1 %34, label %43, label %35

35:                                               ; preds = %31
  %36 = load ptr, ptr %14, align 8, !tbaa !22
  %37 = getelementptr inbounds nuw %struct.AudioFWTDNContext, ptr %36, i32 0, i32 12
  %38 = load i32, ptr %37, align 8, !tbaa !44
  %39 = icmp ne i32 %38, 0
  br i1 %39, label %40, label %43

40:                                               ; preds = %35
  %41 = load ptr, ptr %14, align 8, !tbaa !22
  %42 = getelementptr inbounds nuw %struct.AudioFWTDNContext, ptr %41, i32 0, i32 13
  store i32 0, ptr %42, align 4, !tbaa !45
  br label %43

43:                                               ; preds = %40, %35, %31
  store i32 0, ptr %7, align 4
  store i32 1, ptr %16, align 4
  br label %44

44:                                               ; preds = %43, %29
  call void @llvm.lifetime.end.p0(i64 4, ptr %15) #12
  call void @llvm.lifetime.end.p0(i64 8, ptr %14) #12
  %45 = load i32, ptr %7, align 4
  ret i32 %45
}