; Function Attrs: nounwind uwtable
define internal range(i32 -2147483648, 1) i32 @process_command(ptr noundef %0, ptr noundef %1, ptr noundef %2, ptr noundef %3, i32 noundef %4, i32 noundef %5) #1 {
  %7 = getelementptr inbounds nuw i8, ptr %0, i64 72
  %8 = load ptr, ptr %7, align 8, !tbaa !4
  %9 = tail call i32 @ff_filter_process_command(ptr noundef %0, ptr noundef %1, ptr noundef %2, ptr noundef %3, i32 noundef %4, i32 noundef %5) #12
  %10 = icmp slt i32 %9, 0
  br i1 %10, label %18, label %11

11:                                               ; preds = %6
  %12 = tail call i32 @strcmp(ptr noundef nonnull dereferenceable(1) %1, ptr noundef nonnull dereferenceable(8) @.str.23) #13
  %.not = icmp eq i32 %12, 0
  br i1 %.not, label %13, label %18

13:                                               ; preds = %11
  %14 = getelementptr inbounds nuw i8, ptr %8, i64 72
  %15 = load i32, ptr %14, align 8, !tbaa !37
  %.not13 = icmp eq i32 %15, 0
  br i1 %.not13, label %18, label %16

16:                                               ; preds = %13
  %17 = getelementptr inbounds nuw i8, ptr %8, i64 76
  store i32 0, ptr %17, align 4, !tbaa !38
  br label %18

18:                                               ; preds = %11, %13, %16, %6
  %.0 = phi i32 [ %9, %6 ], [ 0, %16 ], [ 0, %13 ], [ 0, %11 ]
  ret i32 %.0
}